target datalayout = "e-m:e-p270:32:32-p271:32:32-p272:64:64-i64:64-i128:128-f80:128-n8:16:32:64-S128"
target triple = "x86_64-pc-linux-gnu"

@s5066_header_size = internal global i32 5, align 4
@s5066_size_offset = internal global i32 3, align 4

; Function Attrs: null_pointer_is_valid sspstrong uwtable
define internal i32 @get_s5066_pdu_len(ptr noundef %0, ptr noundef %1, i32 noundef %2, ptr noundef %3) #0 {
  %5 = alloca ptr, align 8
  %6 = alloca ptr, align 8
  %7 = alloca i32, align 4
  %8 = alloca ptr, align 8
  %9 = alloca i16, align 2
  store ptr %0, ptr %5, align 8
  store ptr %1, ptr %6, align 8
  store i32 %2, ptr %7, align 4
  store ptr %3, ptr %8, align 8
  call void @llvm.lifetime.start.p0(i64 2, ptr %9) #4
  %10 = load ptr, ptr %6, align 8
  %11 = load i32, ptr %7, align 4
  %12 = load i32, ptr @s5066_size_offset, align 4
  %13 = add i32 %11, %12
  %14 = call zeroext i16 @tvb_get_ntohs(ptr noundef %10, i32 noundef %13)
  store i16 %14, ptr %9, align 2
  %15 = load i16, ptr %9, align 2
  %16 = zext i16 %15 to i32
  %17 = load i32, ptr @s5066_header_size, align 4
  %18 = add i32 %16, %17
  call void @llvm.lifetime.end.p0(i64 2, ptr %9) #4
  ret i32 %18
}