; Function Attrs: null_pointer_is_valid sspstrong uwtable
define internal range(i32 4, 65541) i32 @get_s5066_pdu_len(ptr readnone captures(none) %0, ptr noundef %1, i32 noundef %2, ptr readnone captures(none) %3) #0 {
  %.b2 = load i1, ptr @s5066_size_offset, align 4
  %5 = select i1 %.b2, i32 2, i32 3
  %6 = add i32 %5, %2
  %7 = tail call zeroext i16 @tvb_get_ntohs(ptr noundef %1, i32 noundef %6)
  %8 = zext i16 %7 to i32
  %.b = load i1, ptr @s5066_header_size, align 4
  %9 = select i1 %.b, i32 4, i32 5
  %10 = add nuw nsw i32 %9, %8
  ret i32 %10
}